target datalayout = "e-m:e-p270:32:32-p271:32:32-p272:64:64-i64:64-i128:128-f80:128-n8:16:32:64-S128"
target triple = "x86_64-pc-linux-gnu"

%struct._zval_struct = type { %union._zend_value, %union.anon, %union.anon.2 }
%union._zend_value = type { i64 }
%union.anon = type { i32 }
%union.anon.2 = type { i32 }
%struct.zend_get_gc_buffer = type { ptr, ptr, ptr }
%struct._pdo_dbh_t = type { ptr, ptr, ptr, ptr, i32, ptr, i64, [6 x i8], i32, i32, i32, ptr, i64, i32, [2 x ptr], ptr, ptr, %struct._zval_struct, ptr, %struct._zval_struct, i32 }
%struct._zend_fcall_info = type { i64, %struct._zval_struct, ptr, ptr, ptr, i32, ptr }
%struct._zend_fcall_info_cache = type { ptr, ptr, ptr, ptr, ptr }
%struct.pdo_sqlite_db_handle = type { ptr, %struct.pdo_sqlite_error_info, ptr, ptr }
%struct.pdo_sqlite_error_info = type { ptr, i32, i32, ptr }
%struct.pdo_sqlite_func = type { ptr, %struct._zval_struct, %struct._zval_struct, %struct._zval_struct, i32, ptr, %struct.pdo_sqlite_fci, %struct.pdo_sqlite_fci, %struct.pdo_sqlite_fci }
%struct.pdo_sqlite_fci = type { %struct._zend_fcall_info, %struct._zend_fcall_info_cache }
%struct.pdo_sqlite_collation = type { ptr, ptr, %struct._zval_struct, %struct.pdo_sqlite_fci }
%struct.anon.0 = type { i8, i8, %union.anon.1 }
%union.anon.1 = type { i16 }

; Function Attrs: nounwind uwtable
define internal void @pdo_sqlite_get_gc(ptr noundef %0, ptr noundef %1) #0 {
  %3 = alloca ptr, align 8
  %4 = alloca ptr, align 8
  %5 = alloca ptr, align 8
  %6 = alloca ptr, align 8
  %7 = alloca ptr, align 8
  %8 = alloca i32, align 4
  %9 = alloca ptr, align 8
  %10 = alloca ptr, align 8
  %11 = alloca ptr, align 8
  %12 = alloca ptr, align 8
  %13 = alloca ptr, align 8
  %14 = alloca i32, align 4
  %15 = alloca ptr, align 8
  %16 = alloca ptr, align 8
  %17 = alloca ptr, align 8
  %18 = alloca ptr, align 8
  %19 = alloca ptr, align 8
  %20 = alloca i32, align 4
  %21 = alloca ptr, align 8
  %22 = alloca ptr, align 8
  %23 = alloca ptr, align 8
  %24 = alloca ptr, align 8
  %25 = alloca ptr, align 8
  %26 = alloca i32, align 4
  %27 = alloca ptr, align 8
  %28 = alloca ptr, align 8
  %29 = alloca ptr, align 8
  %30 = alloca ptr, align 8
  %31 = alloca ptr, align 8
  store ptr %0, ptr %27, align 8
  store ptr %1, ptr %28, align 8
  %32 = load ptr, ptr %27, align 8
  %33 = getelementptr inbounds %struct._pdo_dbh_t, ptr %32, i32 0, i32 1
  %34 = load ptr, ptr %33, align 8
  store ptr %34, ptr %29, align 8
  %35 = load ptr, ptr %29, align 8
  %36 = getelementptr inbounds %struct.pdo_sqlite_db_handle, ptr %35, i32 0, i32 2
  %37 = load ptr, ptr %36, align 8
  store ptr %37, ptr %30, align 8
  br label %38

38:                                               ; preds = %149, %2
  %39 = load ptr, ptr %30, align 8
  %40 = icmp ne ptr %39, null
  br i1 %40, label %41, label %153

41:                                               ; preds = %38
  %42 = load ptr, ptr %28, align 8
  %43 = load ptr, ptr %30, align 8
  %44 = getelementptr inbounds %struct.pdo_sqlite_func, ptr %43, i32 0, i32 1
  store ptr %42, ptr %3, align 8
  store ptr %44, ptr %4, align 8
  %45 = load ptr, ptr %4, align 8
  %46 = getelementptr inbounds %struct._zval_struct, ptr %45, i32 0, i32 1
  %47 = getelementptr inbounds %struct.anon.0, ptr %46, i32 0, i32 1
  %48 = load i8, ptr %47, align 1
  %49 = zext i8 %48 to i32
  %50 = icmp ne i32 %49, 0
  br i1 %50, label %51, label %77

51:                                               ; preds = %41
  %52 = load ptr, ptr %3, align 8
  %53 = load ptr, ptr %52, align 8
  %54 = load ptr, ptr %3, align 8
  %55 = getelementptr inbounds %struct.zend_get_gc_buffer, ptr %54, i32 0, i32 1
  %56 = load ptr, ptr %55, align 8
  %57 = icmp eq ptr %53, %56
  br i1 %57, label %58, label %60

58:                                               ; preds = %51
  %59 = load ptr, ptr %3, align 8
  call void @zend_get_gc_buffer_grow(ptr noundef %59) #9
  br label %60

60:                                               ; preds = %58, %51
  %61 = load ptr, ptr %3, align 8
  %62 = load ptr, ptr %61, align 8
  store ptr %62, ptr %5, align 8
  %63 = load ptr, ptr %4, align 8
  store ptr %63, ptr %6, align 8
  %64 = load ptr, ptr %6, align 8
  %65 = load ptr, ptr %64, align 8
  store ptr %65, ptr %7, align 8
  %66 = load ptr, ptr %6, align 8
  %67 = getelementptr inbounds %struct._zval_struct, ptr %66, i32 0, i32 1
  %68 = load i32, ptr %67, align 8
  store i32 %68, ptr %8, align 4
  %69 = load ptr, ptr %7, align 8
  %70 = load ptr, ptr %5, align 8
  store ptr %69, ptr %70, align 8
  %71 = load i32, ptr %8, align 4
  %72 = load ptr, ptr %5, align 8
  %73 = getelementptr inbounds %struct._zval_struct, ptr %72, i32 0, i32 1
  store i32 %71, ptr %73, align 8
  %74 = load ptr, ptr %3, align 8
  %75 = load ptr, ptr %74, align 8
  %76 = getelementptr inbounds %struct._zval_struct, ptr %75, i32 1
  store ptr %76, ptr %74, align 8
  br label %77

77:                                               ; preds = %60, %41
  %78 = load ptr, ptr %28, align 8
  %79 = load ptr, ptr %30, align 8
  %80 = getelementptr inbounds %struct.pdo_sqlite_func, ptr %79, i32 0, i32 2
  store ptr %78, ptr %9, align 8
  store ptr %80, ptr %10, align 8
  %81 = load ptr, ptr %10, align 8
  %82 = getelementptr inbounds %struct._zval_struct, ptr %81, i32 0, i32 1
  %83 = getelementptr inbounds %struct.anon.0, ptr %82, i32 0, i32 1
  %84 = load i8, ptr %83, align 1
  %85 = zext i8 %84 to i32
  %86 = icmp ne i32 %85, 0
  br i1 %86, label %87, label %113

87:                                               ; preds = %77
  %88 = load ptr, ptr %9, align 8
  %89 = load ptr, ptr %88, align 8
  %90 = load ptr, ptr %9, align 8
  %91 = getelementptr inbounds %struct.zend_get_gc_buffer, ptr %90, i32 0, i32 1
  %92 = load ptr, ptr %91, align 8
  %93 = icmp eq ptr %89, %92
  br i1 %93, label %94, label %96

94:                                               ; preds = %87
  %95 = load ptr, ptr %9, align 8
  call void @zend_get_gc_buffer_grow(ptr noundef %95) #9
  br label %96

96:                                               ; preds = %94, %87
  %97 = load ptr, ptr %9, align 8
  %98 = load ptr, ptr %97, align 8
  store ptr %98, ptr %11, align 8
  %99 = load ptr, ptr %10, align 8
  store ptr %99, ptr %12, align 8
  %100 = load ptr, ptr %12, align 8
  %101 = load ptr, ptr %100, align 8
  store ptr %101, ptr %13, align 8
  %102 = load ptr, ptr %12, align 8
  %103 = getelementptr inbounds %struct._zval_struct, ptr %102, i32 0, i32 1
  %104 = load i32, ptr %103, align 8
  store i32 %104, ptr %14, align 4
  %105 = load ptr, ptr %13, align 8
  %106 = load ptr, ptr %11, align 8
  store ptr %105, ptr %106, align 8
  %107 = load i32, ptr %14, align 4
  %108 = load ptr, ptr %11, align 8
  %109 = getelementptr inbounds %struct._zval_struct, ptr %108, i32 0, i32 1
  store i32 %107, ptr %109, align 8
  %110 = load ptr, ptr %9, align 8
  %111 = load ptr, ptr %110, align 8
  %112 = getelementptr inbounds %struct._zval_struct, ptr %111, i32 1
  store ptr %112, ptr %110, align 8
  br label %113

113:                                              ; preds = %96, %77
  %114 = load ptr, ptr %28, align 8
  %115 = load ptr, ptr %30, align 8
  %116 = getelementptr inbounds %struct.pdo_sqlite_func, ptr %115, i32 0, i32 3
  store ptr %114, ptr %15, align 8
  store ptr %116, ptr %16, align 8
  %117 = load ptr, ptr %16, align 8
  %118 = getelementptr inbounds %struct._zval_struct, ptr %117, i32 0, i32 1
  %119 = getelementptr inbounds %struct.anon.0, ptr %118, i32 0, i32 1
  %120 = load i8, ptr %119, align 1
  %121 = zext i8 %120 to i32
  %122 = icmp ne i32 %121, 0
  br i1 %122, label %123, label %149

123:                                              ; preds = %113
  %124 = load ptr, ptr %15, align 8
  %125 = load ptr, ptr %124, align 8
  %126 = load ptr, ptr %15, align 8
  %127 = getelementptr inbounds %struct.zend_get_gc_buffer, ptr %126, i32 0, i32 1
  %128 = load ptr, ptr %127, align 8
  %129 = icmp eq ptr %125, %128
  br i1 %129, label %130, label %132

130:                                              ; preds = %123
  %131 = load ptr, ptr %15, align 8
  call void @zend_get_gc_buffer_grow(ptr noundef %131) #9
  br label %132

132:                                              ; preds = %130, %123
  %133 = load ptr, ptr %15, align 8
  %134 = load ptr, ptr %133, align 8
  store ptr %134, ptr %17, align 8
  %135 = load ptr, ptr %16, align 8
  store ptr %135, ptr %18, align 8
  %136 = load ptr, ptr %18, align 8
  %137 = load ptr, ptr %136, align 8
  store ptr %137, ptr %19, align 8
  %138 = load ptr, ptr %18, align 8
  %139 = getelementptr inbounds %struct._zval_struct, ptr %138, i32 0, i32 1
  %140 = load i32, ptr %139, align 8
  store i32 %140, ptr %20, align 4
  %141 = load ptr, ptr %19, align 8
  %142 = load ptr, ptr %17, align 8
  store ptr %141, ptr %142, align 8
  %143 = load i32, ptr %20, align 4
  %144 = load ptr, ptr %17, align 8
  %145 = getelementptr inbounds %struct._zval_struct, ptr %144, i32 0, i32 1
  store i32 %143, ptr %145, align 8
  %146 = load ptr, ptr %15, align 8
  %147 = load ptr, ptr %146, align 8
  %148 = getelementptr inbounds %struct._zval_struct, ptr %147, i32 1
  store ptr %148, ptr %146, align 8
  br label %149

149:                                              ; preds = %132, %113
  %150 = load ptr, ptr %30, align 8
  %151 = getelementptr inbounds %struct.pdo_sqlite_func, ptr %150, i32 0, i32 0
  %152 = load ptr, ptr %151, align 8
  store ptr %152, ptr %30, align 8
  br label %38

153:                                              ; preds = %38
  %154 = load ptr, ptr %29, align 8
  %155 = getelementptr inbounds %struct.pdo_sqlite_db_handle, ptr %154, i32 0, i32 3
  %156 = load ptr, ptr %155, align 8
  store ptr %156, ptr %31, align 8
  br label %157

157:                                              ; preds = %196, %153
  %158 = load ptr, ptr %31, align 8
  %159 = icmp ne ptr %158, null
  br i1 %159, label %160, label %200

160:                                              ; preds = %157
  %161 = load ptr, ptr %28, align 8
  %162 = load ptr, ptr %31, align 8
  %163 = getelementptr inbounds %struct.pdo_sqlite_collation, ptr %162, i32 0, i32 2
  store ptr %161, ptr %21, align 8
  store ptr %163, ptr %22, align 8
  %164 = load ptr, ptr %22, align 8
  %165 = getelementptr inbounds %struct._zval_struct, ptr %164, i32 0, i32 1
  %166 = getelementptr inbounds %struct.anon.0, ptr %165, i32 0, i32 1
  %167 = load i8, ptr %166, align 1
  %168 = zext i8 %167 to i32
  %169 = icmp ne i32 %168, 0
  br i1 %169, label %170, label %196

170:                                              ; preds = %160
  %171 = load ptr, ptr %21, align 8
  %172 = load ptr, ptr %171, align 8
  %173 = load ptr, ptr %21, align 8
  %174 = getelementptr inbounds %struct.zend_get_gc_buffer, ptr %173, i32 0, i32 1
  %175 = load ptr, ptr %174, align 8
  %176 = icmp eq ptr %172, %175
  br i1 %176, label %177, label %179

177:                                              ; preds = %170
  %178 = load ptr, ptr %21, align 8
  call void @zend_get_gc_buffer_grow(ptr noundef %178) #9
  br label %179

179:                                              ; preds = %177, %170
  %180 = load ptr, ptr %21, align 8
  %181 = load ptr, ptr %180, align 8
  store ptr %181, ptr %23, align 8
  %182 = load ptr, ptr %22, align 8
  store ptr %182, ptr %24, align 8
  %183 = load ptr, ptr %24, align 8
  %184 = load ptr, ptr %183, align 8
  store ptr %184, ptr %25, align 8
  %185 = load ptr, ptr %24, align 8
  %186 = getelementptr inbounds %struct._zval_struct, ptr %185, i32 0, i32 1
  %187 = load i32, ptr %186, align 8
  store i32 %187, ptr %26, align 4
  %188 = load ptr, ptr %25, align 8
  %189 = load ptr, ptr %23, align 8
  store ptr %188, ptr %189, align 8
  %190 = load i32, ptr %26, align 4
  %191 = load ptr, ptr %23, align 8
  %192 = getelementptr inbounds %struct._zval_struct, ptr %191, i32 0, i32 1
  store i32 %190, ptr %192, align 8
  %193 = load ptr, ptr %21, align 8
  %194 = load ptr, ptr %193, align 8
  %195 = getelementptr inbounds %struct._zval_struct, ptr %194, i32 1
  store ptr %195, ptr %193, align 8
  br label %196

196:                                              ; preds = %179, %160
  %197 = load ptr, ptr %31, align 8
  %198 = getelementptr inbounds %struct.pdo_sqlite_collation, ptr %197, i32 0, i32 0
  %199 = load ptr, ptr %198, align 8
  store ptr %199, ptr %31, align 8
  br label %157

200:                                              ; preds = %157
  ret void
}