; Function Attrs: nounwind uwtable
define internal void @pdo_sqlite_get_gc(ptr nocapture noundef readonly %0, ptr noundef %1) #0 {
  %3 = getelementptr inbounds i8, ptr %0, i64 8
  %4 = load ptr, ptr %3, align 8
  %5 = getelementptr inbounds i8, ptr %4, i64 32
  %.06672 = load ptr, ptr %5, align 8
  %.not73 = icmp eq ptr %.06672, null
  br i1 %.not73, label %._crit_edge, label %.lr.ph

.lr.ph:                                           ; preds = %2
  %6 = getelementptr inbounds i8, ptr %1, i64 8
  br label %7

7:                                                ; preds = %.lr.ph, %58
  %.06674 = phi ptr [ %.06672, %.lr.ph ], [ %.066, %58 ]
  %8 = getelementptr inbounds i8, ptr %.06674, i64 8
  %9 = getelementptr inbounds i8, ptr %.06674, i64 16
  %10 = getelementptr inbounds i8, ptr %.06674, i64 17
  %11 = load i8, ptr %10, align 1
  %.not69 = icmp eq i8 %11, 0
  br i1 %.not69, label %24, label %12

12:                                               ; preds = %7
  %13 = load ptr, ptr %1, align 8
  %14 = load ptr, ptr %6, align 8
  %15 = icmp eq ptr %13, %14
  br i1 %15, label %16, label %17

16:                                               ; preds = %12
  tail call void @zend_get_gc_buffer_grow(ptr noundef nonnull %1) #11
  %.pre = load ptr, ptr %1, align 8
  br label %17

17:                                               ; preds = %16, %12
  %18 = phi ptr [ %.pre, %16 ], [ %13, %12 ]
  %19 = load ptr, ptr %8, align 8
  %20 = load i32, ptr %9, align 8
  store ptr %19, ptr %18, align 8
  %21 = getelementptr inbounds i8, ptr %18, i64 8
  store i32 %20, ptr %21, align 8
  %22 = load ptr, ptr %1, align 8
  %23 = getelementptr inbounds i8, ptr %22, i64 16
  store ptr %23, ptr %1, align 8
  br label %24

24:                                               ; preds = %17, %7
  %25 = getelementptr inbounds i8, ptr %.06674, i64 24
  %26 = getelementptr inbounds i8, ptr %.06674, i64 32
  %27 = getelementptr inbounds i8, ptr %.06674, i64 33
  %28 = load i8, ptr %27, align 1
  %.not70 = icmp eq i8 %28, 0
  br i1 %.not70, label %41, label %29

29:                                               ; preds = %24
  %30 = load ptr, ptr %1, align 8
  %31 = load ptr, ptr %6, align 8
  %32 = icmp eq ptr %30, %31
  br i1 %32, label %33, label %34

33:                                               ; preds = %29
  tail call void @zend_get_gc_buffer_grow(ptr noundef nonnull %1) #11
  %.pre81 = load ptr, ptr %1, align 8
  br label %34

34:                                               ; preds = %33, %29
  %35 = phi ptr [ %.pre81, %33 ], [ %30, %29 ]
  %36 = load ptr, ptr %25, align 8
  %37 = load i32, ptr %26, align 8
  store ptr %36, ptr %35, align 8
  %38 = getelementptr inbounds i8, ptr %35, i64 8
  store i32 %37, ptr %38, align 8
  %39 = load ptr, ptr %1, align 8
  %40 = getelementptr inbounds i8, ptr %39, i64 16
  store ptr %40, ptr %1, align 8
  br label %41

41:                                               ; preds = %34, %24
  %42 = getelementptr inbounds i8, ptr %.06674, i64 40
  %43 = getelementptr inbounds i8, ptr %.06674, i64 48
  %44 = getelementptr inbounds i8, ptr %.06674, i64 49
  %45 = load i8, ptr %44, align 1
  %.not71 = icmp eq i8 %45, 0
  br i1 %.not71, label %58, label %46

46:                                               ; preds = %41
  %47 = load ptr, ptr %1, align 8
  %48 = load ptr, ptr %6, align 8
  %49 = icmp eq ptr %47, %48
  br i1 %49, label %50, label %51

50:                                               ; preds = %46
  tail call void @zend_get_gc_buffer_grow(ptr noundef nonnull %1) #11
  %.pre82 = load ptr, ptr %1, align 8
  br label %51

51:                                               ; preds = %50, %46
  %52 = phi ptr [ %.pre82, %50 ], [ %47, %46 ]
  %53 = load ptr, ptr %42, align 8
  %54 = load i32, ptr %43, align 8
  store ptr %53, ptr %52, align 8
  %55 = getelementptr inbounds i8, ptr %52, i64 8
  store i32 %54, ptr %55, align 8
  %56 = load ptr, ptr %1, align 8
  %57 = getelementptr inbounds i8, ptr %56, i64 16
  store ptr %57, ptr %1, align 8
  br label %58

58:                                               ; preds = %51, %41
  %.066 = load ptr, ptr %.06674, align 8
  %.not = icmp eq ptr %.066, null
  br i1 %.not, label %._crit_edge, label %7

._crit_edge:                                      ; preds = %58, %2
  %59 = getelementptr inbounds i8, ptr %4, i64 40
  %.075 = load ptr, ptr %59, align 8
  %.not6776 = icmp eq ptr %.075, null
  br i1 %.not6776, label %._crit_edge80, label %.lr.ph79

.lr.ph79:                                         ; preds = %._crit_edge
  %60 = getelementptr inbounds i8, ptr %1, i64 8
  br label %61

61:                                               ; preds = %.lr.ph79, %78
  %.077 = phi ptr [ %.075, %.lr.ph79 ], [ %.0, %78 ]
  %62 = getelementptr inbounds i8, ptr %.077, i64 16
  %63 = getelementptr inbounds i8, ptr %.077, i64 24
  %64 = getelementptr inbounds i8, ptr %.077, i64 25
  %65 = load i8, ptr %64, align 1
  %.not68 = icmp eq i8 %65, 0
  br i1 %.not68, label %78, label %66

66:                                               ; preds = %61
  %67 = load ptr, ptr %1, align 8
  %68 = load ptr, ptr %60, align 8
  %69 = icmp eq ptr %67, %68
  br i1 %69, label %70, label %71

70:                                               ; preds = %66
  tail call void @zend_get_gc_buffer_grow(ptr noundef nonnull %1) #11
  %.pre83 = load ptr, ptr %1, align 8
  br label %71

71:                                               ; preds = %70, %66
  %72 = phi ptr [ %.pre83, %70 ], [ %67, %66 ]
  %73 = load ptr, ptr %62, align 8
  %74 = load i32, ptr %63, align 8
  store ptr %73, ptr %72, align 8
  %75 = getelementptr inbounds i8, ptr %72, i64 8
  store i32 %74, ptr %75, align 8
  %76 = load ptr, ptr %1, align 8
  %77 = getelementptr inbounds i8, ptr %76, i64 16
  store ptr %77, ptr %1, align 8
  br label %78

78:                                               ; preds = %71, %61
  %.0 = load ptr, ptr %.077, align 8
  %.not67 = icmp eq ptr %.0, null
  br i1 %.not67, label %._crit_edge80, label %61

._crit_edge80:                                    ; preds = %78, %._crit_edge
  ret void
}